; Function Attrs: mustprogress nounwind uwtable
define void @_ZN9grpc_core8internal21StatusMoveFromHeapPtrEm(ptr dead_on_unwind noalias writable writeonly sret(%"class.absl::lts_20240722::Status") align 8 captures(none) initializes((0, 8)) %0, i64 noundef %1) local_unnamed_addr #7 personality ptr @__gxx_personality_v0 {
  %3 = icmp eq i64 %1, 0
  br i1 %3, label %6, label %_ZN4absl12lts_202407226StatusD2Ev.exit

_ZN4absl12lts_202407226StatusD2Ev.exit:           ; preds = %2
  %4 = inttoptr i64 %1 to ptr
  %5 = load i64, ptr %4, align 8, !tbaa !8
  tail call void @_ZdlPvm(ptr noundef %4, i64 noundef 8) #30
  br label %6

6:                                                ; preds = %2, %_ZN4absl12lts_202407226StatusD2Ev.exit
  %.sink = phi i64 [ %5, %_ZN4absl12lts_202407226StatusD2Ev.exit ], [ 1, %2 ]
  store i64 %.sink, ptr %0, align 8, !tbaa !8
  ret void
}